target datalayout = "e-m:e-p270:32:32-p271:32:32-p272:64:64-i64:64-i128:128-f80:128-n8:16:32:64-S128"
target triple = "x86_64-pc-linux-gnu"

%"struct.Yosys::RTLIL::Const" = type { i16, i8, %union.anon }
%union.anon = type { %"class.std::__cxx11::basic_string" }
%"class.std::__cxx11::basic_string" = type { %"struct.std::__cxx11::basic_string<char>::_Alloc_hider", i64, %union.anon.3 }
%"struct.std::__cxx11::basic_string<char>::_Alloc_hider" = type { ptr }
%union.anon.3 = type { i64, [8 x i8] }
%"struct.std::_Vector_base" = type { %"struct.std::_Vector_base<Yosys::RTLIL::State, std::allocator<Yosys::RTLIL::State>>::_Vector_impl" }
%"struct.std::_Vector_base<Yosys::RTLIL::State, std::allocator<Yosys::RTLIL::State>>::_Vector_impl" = type { %"struct.std::_Vector_base<Yosys::RTLIL::State, std::allocator<Yosys::RTLIL::State>>::_Vector_impl_data" }
%"struct.std::_Vector_base<Yosys::RTLIL::State, std::allocator<Yosys::RTLIL::State>>::_Vector_impl_data" = type { ptr, ptr, ptr }
%"class.Yosys::RTLIL::Const::const_iterator" = type { ptr, i64 }
%"class.__gnu_cxx::__normal_iterator" = type { ptr }

; Function Attrs: mustprogress nounwind uwtable
define linkonce_odr void @_ZN9__gnu_cxx17__normal_iteratorIPN5Yosys5RTLIL5StateESt6vectorIS3_SaIS3_EEEC2ERKS4_(ptr noundef nonnull align 8 dereferenceable(8) %0, ptr noundef nonnull align 8 dereferenceable(8) %1) unnamed_addr #6 comdat align 2 {
  %3 = alloca ptr, align 8
  %4 = alloca ptr, align 8
  store ptr %0, ptr %3, align 8, !tbaa !80
  store ptr %1, ptr %4, align 8, !tbaa !96
  %5 = load ptr, ptr %3, align 8
  %6 = getelementptr inbounds nuw %"class.__gnu_cxx::__normal_iterator", ptr %5, i32 0, i32 0
  %7 = load ptr, ptr %4, align 8, !tbaa !96
  %8 = load ptr, ptr %7, align 8, !tbaa !28
  store ptr %8, ptr %6, align 8, !tbaa !82
  ret void
}

; Function Attrs: mustprogress nounwind uwtable
define linkonce_odr void @_ZN5Yosys5RTLIL5Const14const_iteratorC2ERKS1_m(ptr noundef nonnull align 8 dereferenceable(16) %0, ptr noundef nonnull align 8 dereferenceable(40) %1, i64 noundef %2) unnamed_addr #6 comdat align 2 {
  %4 = alloca ptr, align 8
  %5 = alloca ptr, align 8
  %6 = alloca i64, align 8
  store ptr %0, ptr %4, align 8, !tbaa !62
  store ptr %1, ptr %5, align 8, !tbaa !6
  store i64 %2, ptr %6, align 8, !tbaa !24
  %7 = load ptr, ptr %4, align 8
  %8 = getelementptr inbounds nuw %"class.Yosys::RTLIL::Const::const_iterator", ptr %7, i32 0, i32 0
  %9 = load ptr, ptr %5, align 8, !tbaa !6
  store ptr %9, ptr %8, align 8, !tbaa !6
  %10 = getelementptr inbounds nuw %"class.Yosys::RTLIL::Const::const_iterator", ptr %7, i32 0, i32 1
  %11 = load i64, ptr %6, align 8, !tbaa !24
  store i64 %11, ptr %10, align 8, !tbaa !66
  ret void
}

; Function Attrs: mustprogress nounwind uwtable
define linkonce_odr noundef nonnull align 1 dereferenceable(1) ptr @_ZNK9__gnu_cxx17__normal_iteratorIPN5Yosys5RTLIL5StateESt6vectorIS3_SaIS3_EEEdeEv(ptr noundef nonnull align 8 dereferenceable(8) %0) #6 comdat align 2 {
  %2 = alloca ptr, align 8
  store ptr %0, ptr %2, align 8, !tbaa !80
  %3 = load ptr, ptr %2, align 8
  %4 = getelementptr inbounds nuw %"class.__gnu_cxx::__normal_iterator", ptr %3, i32 0, i32 0
  %5 = load ptr, ptr %4, align 8, !tbaa !82
  ret ptr %5
}

; Function Attrs: mustprogress nounwind uwtable
define linkonce_odr ptr @_ZNSt6vectorIN5Yosys5RTLIL5StateESaIS2_EE5beginEv(ptr noundef nonnull align 8 dereferenceable(24) %0) #6 comdat align 2 {
  %2 = alloca %"class.__gnu_cxx::__normal_iterator", align 8
  %3 = alloca ptr, align 8
  store ptr %0, ptr %3, align 8, !tbaa !22
  %4 = load ptr, ptr %3, align 8
  %5 = getelementptr inbounds nuw %"struct.std::_Vector_base", ptr %4, i32 0, i32 0
  %6 = getelementptr inbounds nuw %"struct.std::_Vector_base<Yosys::RTLIL::State, std::allocator<Yosys::RTLIL::State>>::_Vector_impl_data", ptr %5, i32 0, i32 0
  call void @_ZN9__gnu_cxx17__normal_iteratorIPN5Yosys5RTLIL5StateESt6vectorIS3_SaIS3_EEEC2ERKS4_(ptr noundef nonnull align 8 dereferenceable(8) %2, ptr noundef nonnull align 8 dereferenceable(8) %6) #3
  %7 = getelementptr inbounds nuw %"class.__gnu_cxx::__normal_iterator", ptr %2, i32 0, i32 0
  %8 = load ptr, ptr %7, align 8
  ret ptr %8
}

; Function Attrs: mustprogress uwtable
define linkonce_odr { ptr, i64 } @_ZNK5Yosys5RTLIL5Const5beginEv(ptr noundef nonnull align 8 dereferenceable(40) %0) #4 comdat align 2 {
  %2 = alloca %"class.Yosys::RTLIL::Const::const_iterator", align 8
  %3 = alloca ptr, align 8
  store ptr %0, ptr %3, align 8, !tbaa !6
  %4 = load ptr, ptr %3, align 8
  call void @_ZN5Yosys5RTLIL5Const14const_iteratorC2ERKS1_m(ptr noundef nonnull align 8 dereferenceable(16) %2, ptr noundef nonnull align 8 dereferenceable(40) %4, i64 noundef 0)
  %5 = load { ptr, i64 }, ptr %2, align 8
  ret { ptr, i64 } %5
}

; Function Attrs: mustprogress nounwind uwtable
define linkonce_odr noundef nonnull align 1 dereferenceable(1) ptr @_ZNSt6vectorIN5Yosys5RTLIL5StateESaIS2_EE5frontEv(ptr noundef nonnull align 8 dereferenceable(24) %0) #6 comdat align 2 {
  %2 = alloca ptr, align 8
  %3 = alloca %"class.__gnu_cxx::__normal_iterator", align 8
  store ptr %0, ptr %2, align 8, !tbaa !22
  %4 = load ptr, ptr %2, align 8
  call void @llvm.lifetime.start.p0(i64 8, ptr %3) #3
  %5 = call ptr @_ZNSt6vectorIN5Yosys5RTLIL5StateESaIS2_EE5beginEv(ptr noundef nonnull align 8 dereferenceable(24) %4) #3
  %6 = getelementptr inbounds nuw %"class.__gnu_cxx::__normal_iterator", ptr %3, i32 0, i32 0
  store ptr %5, ptr %6, align 8
  %7 = call noundef nonnull align 1 dereferenceable(1) ptr @_ZNK9__gnu_cxx17__normal_iteratorIPN5Yosys5RTLIL5StateESt6vectorIS3_SaIS3_EEEdeEv(ptr noundef nonnull align 8 dereferenceable(8) %3) #3
  call void @llvm.lifetime.end.p0(i64 8, ptr %3) #3
  ret ptr %7
}

; Function Attrs: mustprogress uwtable
define linkonce_odr noundef zeroext i8 @_ZNK5Yosys5RTLIL5Const5frontEv(ptr noundef nonnull align 8 dereferenceable(40) %0) #4 comdat align 2 {
  %2 = alloca ptr, align 8
  %3 = alloca %"class.Yosys::RTLIL::Const::const_iterator", align 8
  store ptr %0, ptr %2, align 8, !tbaa !6
  %4 = load ptr, ptr %2, align 8
  call void @llvm.lifetime.start.p0(i64 16, ptr %3) #3
  %5 = call { ptr, i64 } @_ZNK5Yosys5RTLIL5Const5beginEv(ptr noundef nonnull align 8 dereferenceable(40) %4)
  %6 = getelementptr inbounds nuw { ptr, i64 }, ptr %3, i32 0, i32 0
  %7 = extractvalue { ptr, i64 } %5, 0
  store ptr %7, ptr %6, align 8
  %8 = getelementptr inbounds nuw { ptr, i64 }, ptr %3, i32 0, i32 1
  %9 = extractvalue { ptr, i64 } %5, 1
  store i64 %9, ptr %8, align 8
  %10 = call noundef zeroext i8 @_ZNK5Yosys5RTLIL5Const14const_iteratordeEv(ptr noundef nonnull align 8 dereferenceable(16) %3)
  call void @llvm.lifetime.end.p0(i64 16, ptr %3) #3
  ret i8 %10
}

; Function Attrs: mustprogress uwtable
define void @_ZN5Yosys5RTLIL8const_neERKNS0_5ConstES3_bbi(ptr dead_on_unwind noalias writable sret(%"struct.Yosys::RTLIL::Const") align 8 %0, ptr noundef nonnull align 8 dereferenceable(40) %1, ptr noundef nonnull align 8 dereferenceable(40) %2, i1 noundef zeroext %3, i1 noundef zeroext %4, i32 noundef %5) #4 personality ptr @__gxx_personality_v0 {
  %7 = alloca ptr, align 8
  %8 = alloca ptr, align 8
  %9 = alloca ptr, align 8
  %10 = alloca i8, align 1
  %11 = alloca i8, align 1
  %12 = alloca i32, align 4
  %13 = alloca i1, align 1
  %14 = alloca ptr, align 8
  %15 = alloca i32, align 4
  store ptr %0, ptr %7, align 8
  store ptr %1, ptr %8, align 8, !tbaa !6
  store ptr %2, ptr %9, align 8, !tbaa !6
  %16 = zext i1 %3 to i8
  store i8 %16, ptr %10, align 1, !tbaa !11
  %17 = zext i1 %4 to i8
  store i8 %17, ptr %11, align 1, !tbaa !11
  store i32 %5, ptr %12, align 4, !tbaa !13
  store i1 false, ptr %13, align 1
  %18 = load ptr, ptr %8, align 8, !tbaa !6
  %19 = load ptr, ptr %9, align 8, !tbaa !6
  %20 = load i8, ptr %10, align 1, !tbaa !11, !range !15, !noundef !16
  %21 = trunc i8 %20 to i1
  %22 = load i8, ptr %11, align 1, !tbaa !11, !range !15, !noundef !16
  %23 = trunc i8 %22 to i1
  %24 = load i32, ptr %12, align 4, !tbaa !13
  call void @_ZN5Yosys5RTLIL8const_eqERKNS0_5ConstES3_bbi(ptr dead_on_unwind writable sret(%"struct.Yosys::RTLIL::Const") align 8 %0, ptr noundef nonnull align 8 dereferenceable(40) %18, ptr noundef nonnull align 8 dereferenceable(40) %19, i1 noundef zeroext %21, i1 noundef zeroext %23, i32 noundef %24)
  %25 = invoke noundef zeroext i8 @_ZNK5Yosys5RTLIL5Const5frontEv(ptr noundef nonnull align 8 dereferenceable(40) %0)
          to label %26 unwind label %33

26:                                               ; preds = %6
  %27 = zext i8 %25 to i32
  %28 = icmp eq i32 %27, 0
  br i1 %28, label %29, label %37

29:                                               ; preds = %26
  %30 = invoke noundef nonnull align 8 dereferenceable(24) ptr @_ZN5Yosys5RTLIL5Const4bitsEv(ptr noundef nonnull align 8 dereferenceable(40) %0)
          to label %31 unwind label %33

31:                                               ; preds = %29
  %32 = call noundef nonnull align 1 dereferenceable(1) ptr @_ZNSt6vectorIN5Yosys5RTLIL5StateESaIS2_EE5frontEv(ptr noundef nonnull align 8 dereferenceable(24) %30) #3
  store i8 1, ptr %32, align 1, !tbaa !17
  br label %47

33:                                               ; preds = %42, %37, %29, %6
  %34 = landingpad { ptr, i32 }
          cleanup
  %35 = extractvalue { ptr, i32 } %34, 0
  store ptr %35, ptr %14, align 8
  %36 = extractvalue { ptr, i32 } %34, 1
  store i32 %36, ptr %15, align 4
  call void @_ZN5Yosys5RTLIL5ConstD1Ev(ptr noundef nonnull align 8 dereferenceable(40) %0) #3
  br label %51

37:                                               ; preds = %26
  %38 = invoke noundef zeroext i8 @_ZNK5Yosys5RTLIL5Const5frontEv(ptr noundef nonnull align 8 dereferenceable(40) %0)
          to label %39 unwind label %33

39:                                               ; preds = %37
  %40 = zext i8 %38 to i32
  %41 = icmp eq i32 %40, 1
  br i1 %41, label %42, label %46

42:                                               ; preds = %39
  %43 = invoke noundef nonnull align 8 dereferenceable(24) ptr @_ZN5Yosys5RTLIL5Const4bitsEv(ptr noundef nonnull align 8 dereferenceable(40) %0)
          to label %44 unwind label %33

44:                                               ; preds = %42
  %45 = call noundef nonnull align 1 dereferenceable(1) ptr @_ZNSt6vectorIN5Yosys5RTLIL5StateESaIS2_EE5frontEv(ptr noundef nonnull align 8 dereferenceable(24) %43) #3
  store i8 0, ptr %45, align 1, !tbaa !17
  br label %46

46:                                               ; preds = %44, %39
  br label %47

47:                                               ; preds = %46, %31
  store i1 true, ptr %13, align 1
  %48 = load i1, ptr %13, align 1
  br i1 %48, label %50, label %49

49:                                               ; preds = %47
  call void @_ZN5Yosys5RTLIL5ConstD1Ev(ptr noundef nonnull align 8 dereferenceable(40) %0) #3
  br label %50

50:                                               ; preds = %49, %47
  ret void

51:                                               ; preds = %33
  %52 = load ptr, ptr %14, align 8
  %53 = load i32, ptr %15, align 4
  %54 = insertvalue { ptr, i32 } poison, ptr %52, 0
  %55 = insertvalue { ptr, i32 } %54, i32 %53, 1
  resume { ptr, i32 } %55
}