; Function Attrs: mustprogress uwtable
define void @_ZN5Yosys5RTLIL8const_neERKNS0_5ConstES3_bbi(ptr dead_on_unwind noalias writable sret(%"struct.Yosys::RTLIL::Const") align 8 %0, ptr noundef nonnull align 8 dereferenceable(40) %1, ptr noundef nonnull align 8 dereferenceable(40) %2, i1 noundef zeroext %3, i1 noundef zeroext %4, i32 noundef %5) local_unnamed_addr #3 personality ptr @__gxx_personality_v0 {
  %7 = alloca %"class.Yosys::RTLIL::Const::const_iterator", align 8
  %8 = alloca %"class.Yosys::RTLIL::Const::const_iterator", align 8
  tail call void @_ZN5Yosys5RTLIL8const_eqERKNS0_5ConstES3_bbi(ptr dead_on_unwind writable sret(%"struct.Yosys::RTLIL::Const") align 8 %0, ptr noundef nonnull align 8 dereferenceable(40) %1, ptr noundef nonnull align 8 dereferenceable(40) %2, i1 noundef zeroext %3, i1 noundef zeroext %4, i32 noundef %5)
  call void @llvm.lifetime.start.p0(i64 16, ptr nonnull %8) #19
  store ptr %0, ptr %8, align 8
  %9 = getelementptr inbounds nuw i8, ptr %8, i64 8
  store i64 0, ptr %9, align 8
  %10 = invoke noundef zeroext i8 @_ZNK5Yosys5RTLIL5Const14const_iteratordeEv(ptr noundef nonnull align 8 dereferenceable(16) %8)
          to label %11 unwind label %15

11:                                               ; preds = %6
  call void @llvm.lifetime.end.p0(i64 16, ptr nonnull %8) #19
  %12 = icmp eq i8 %10, 0
  br i1 %12, label %13, label %17

13:                                               ; preds = %11
  %14 = invoke noundef nonnull align 8 dereferenceable(24) ptr @_ZN5Yosys5RTLIL5Const4bitsEv(ptr noundef nonnull align 8 dereferenceable(40) %0)
          to label %.sink.split unwind label %15

15:                                               ; preds = %17, %6, %22, %13
  %16 = landingpad { ptr, i32 }
          cleanup
  call void @_ZN5Yosys5RTLIL5ConstD1Ev(ptr noundef nonnull align 8 dereferenceable(40) %0) #19
  resume { ptr, i32 } %16

17:                                               ; preds = %11
  call void @llvm.lifetime.start.p0(i64 16, ptr nonnull %7) #19
  store ptr %0, ptr %7, align 8
  %18 = getelementptr inbounds nuw i8, ptr %7, i64 8
  store i64 0, ptr %18, align 8
  %19 = invoke noundef zeroext i8 @_ZNK5Yosys5RTLIL5Const14const_iteratordeEv(ptr noundef nonnull align 8 dereferenceable(16) %7)
          to label %20 unwind label %15

20:                                               ; preds = %17
  call void @llvm.lifetime.end.p0(i64 16, ptr nonnull %7) #19
  %21 = icmp eq i8 %19, 1
  br i1 %21, label %22, label %25

22:                                               ; preds = %20
  %23 = invoke noundef nonnull align 8 dereferenceable(24) ptr @_ZN5Yosys5RTLIL5Const4bitsEv(ptr noundef nonnull align 8 dereferenceable(40) %0)
          to label %.sink.split unwind label %15

.sink.split:                                      ; preds = %22, %13
  %.sink9 = phi ptr [ %14, %13 ], [ %23, %22 ]
  %.sink = phi i8 [ 1, %13 ], [ 0, %22 ]
  %24 = load ptr, ptr %.sink9, align 8, !tbaa !28
  store i8 %.sink, ptr %24, align 1, !tbaa !11
  br label %25

25:                                               ; preds = %.sink.split, %20
  ret void
}